target datalayout = "e-m:e-p270:32:32-p271:32:32-p272:64:64-i64:64-i128:128-f80:128-n8:16:32:64-S128"
target triple = "x86_64-pc-linux-gnu"

%struct.PHP_SHA224_CTX = type { [8 x i32], [2 x i32], [64 x i8] }

; Function Attrs: nounwind uwtable
define void @PHP_SHA224InitArgs(ptr noundef %0, ptr noundef %1) #1 {
  %3 = alloca ptr, align 8
  %4 = alloca ptr, align 8
  store ptr %0, ptr %3, align 8
  store ptr %1, ptr %4, align 8
  %5 = load ptr, ptr %3, align 8
  %6 = getelementptr inbounds %struct.PHP_SHA224_CTX, ptr %5, i32 0, i32 1
  %7 = getelementptr inbounds [2 x i32], ptr %6, i64 0, i64 1
  store i32 0, ptr %7, align 4
  %8 = load ptr, ptr %3, align 8
  %9 = getelementptr inbounds %struct.PHP_SHA224_CTX, ptr %8, i32 0, i32 1
  %10 = getelementptr inbounds [2 x i32], ptr %9, i64 0, i64 0
  store i32 0, ptr %10, align 4
  %11 = load ptr, ptr %3, align 8
  %12 = getelementptr inbounds %struct.PHP_SHA224_CTX, ptr %11, i32 0, i32 0
  %13 = getelementptr inbounds [8 x i32], ptr %12, i64 0, i64 0
  store i32 -1056596264, ptr %13, align 4
  %14 = load ptr, ptr %3, align 8
  %15 = getelementptr inbounds %struct.PHP_SHA224_CTX, ptr %14, i32 0, i32 0
  %16 = getelementptr inbounds [8 x i32], ptr %15, i64 0, i64 1
  store i32 914150663, ptr %16, align 4
  %17 = load ptr, ptr %3, align 8
  %18 = getelementptr inbounds %struct.PHP_SHA224_CTX, ptr %17, i32 0, i32 0
  %19 = getelementptr inbounds [8 x i32], ptr %18, i64 0, i64 2
  store i32 812702999, ptr %19, align 4
  %20 = load ptr, ptr %3, align 8
  %21 = getelementptr inbounds %struct.PHP_SHA224_CTX, ptr %20, i32 0, i32 0
  %22 = getelementptr inbounds [8 x i32], ptr %21, i64 0, i64 3
  store i32 -150054599, ptr %22, align 4
  %23 = load ptr, ptr %3, align 8
  %24 = getelementptr inbounds %struct.PHP_SHA224_CTX, ptr %23, i32 0, i32 0
  %25 = getelementptr inbounds [8 x i32], ptr %24, i64 0, i64 4
  store i32 -4191439, ptr %25, align 4
  %26 = load ptr, ptr %3, align 8
  %27 = getelementptr inbounds %struct.PHP_SHA224_CTX, ptr %26, i32 0, i32 0
  %28 = getelementptr inbounds [8 x i32], ptr %27, i64 0, i64 5
  store i32 1750603025, ptr %28, align 4
  %29 = load ptr, ptr %3, align 8
  %30 = getelementptr inbounds %struct.PHP_SHA224_CTX, ptr %29, i32 0, i32 0
  %31 = getelementptr inbounds [8 x i32], ptr %30, i64 0, i64 6
  store i32 1694076839, ptr %31, align 4
  %32 = load ptr, ptr %3, align 8
  %33 = getelementptr inbounds %struct.PHP_SHA224_CTX, ptr %32, i32 0, i32 0
  %34 = getelementptr inbounds [8 x i32], ptr %33, i64 0, i64 7
  store i32 -1090891868, ptr %34, align 4
  ret void
}