; Function Attrs: mustprogress nofree norecurse nosync nounwind willreturn memory(argmem: write) uwtable
define void @PHP_SHA224InitArgs(ptr nocapture noundef writeonly %0, ptr nocapture readnone %1) #1 {
  %3 = getelementptr inbounds i8, ptr %0, i64 32
  %4 = getelementptr inbounds i8, ptr %0, i64 36
  store i32 0, ptr %4, align 4
  store i32 0, ptr %3, align 4
  store <4 x i32> <i32 -1056596264, i32 914150663, i32 812702999, i32 -150054599>, ptr %0, align 4
  %5 = getelementptr inbounds i8, ptr %0, i64 16
  store <4 x i32> <i32 -4191439, i32 1750603025, i32 1694076839, i32 -1090891868>, ptr %5, align 4
  ret void
}